; ModuleID = 'bench/openusd/original/resolveInfo.cpp.ll'
source_filename = "bench/openusd/original/resolveInfo.cpp.ll"
target datalayout = "e-m:e-p270:32:32-p271:32:32-p272:64:64-i64:64-i128:128-f80:128-n8:16:32:64-S128"
target triple = "x86_64-pc-linux-gnu"

%"struct.pxrInternal_v0_24__pxrReserved__::(anonymous namespace)::Tf_RegistryStaticInit" = type { i8 }

$__clang_call_terminate = comdat any

$_ZTSN32pxrInternal_v0_24__pxrReserved__20UsdResolveInfoSourceE = comdat any

$_ZTIN32pxrInternal_v0_24__pxrReserved__20UsdResolveInfoSourceE = comdat any

@.str = private unnamed_addr constant [4 x i8] c"usd\00", align 1
@.str.1 = private unnamed_addr constant [7 x i8] c"TfEnum\00", align 1
@_ZN32pxrInternal_v0_24__pxrReserved__15Arch_PerLibInitINS_12_GLOBAL__N_121Tf_RegistryStaticInitEE4initE = internal global %"struct.pxrInternal_v0_24__pxrReserved__::(anonymous namespace)::Tf_RegistryStaticInit" zeroinitializer, align 1
@__dso_handle = external hidden global i8
@.str.3 = private unnamed_addr constant [25 x i8] c"UsdResolveInfoSourceNone\00", align 1
@.str.4 = private unnamed_addr constant [9 x i8] c"No value\00", align 1
@.str.5 = private unnamed_addr constant [29 x i8] c"UsdResolveInfoSourceFallback\00", align 1
@.str.6 = private unnamed_addr constant [24 x i8] c"Built-in fallback value\00", align 1
@.str.7 = private unnamed_addr constant [28 x i8] c"UsdResolveInfoSourceDefault\00", align 1
@.str.8 = private unnamed_addr constant [24 x i8] c"Attribute default value\00", align 1
@.str.9 = private unnamed_addr constant [32 x i8] c"UsdResolveInfoSourceTimeSamples\00", align 1
@.str.10 = private unnamed_addr constant [23 x i8] c"Attribute time samples\00", align 1
@.str.11 = private unnamed_addr constant [31 x i8] c"UsdResolveInfoSourceValueClips\00", align 1
@.str.12 = private unnamed_addr constant [12 x i8] c"Value clips\00", align 1
@_ZTVN10__cxxabiv116__enum_type_infoE = external global [0 x ptr]
@_ZTSN32pxrInternal_v0_24__pxrReserved__20UsdResolveInfoSourceE = linkonce_odr constant [59 x i8] c"N32pxrInternal_v0_24__pxrReserved__20UsdResolveInfoSourceE\00", comdat, align 1
@_ZTIN32pxrInternal_v0_24__pxrReserved__20UsdResolveInfoSourceE = linkonce_odr constant { ptr, ptr } { ptr getelementptr inbounds (ptr, ptr @_ZTVN10__cxxabiv116__enum_type_infoE, i64 2), ptr @_ZTSN32pxrInternal_v0_24__pxrReserved__20UsdResolveInfoSourceE }, comdat, align 8
@llvm.global_ctors = appending global [3 x { i32, ptr, ptr }] [{ i32, ptr, ptr } { i32 65535, ptr @__cxx_global_var_init.2, ptr null }, { i32, ptr, ptr } { i32 200, ptr @_ZN32pxrInternal_v0_24__pxrReserved__L17_Tf_RegistryAdd15EPNS_6TfEnumE, ptr null }, { i32, ptr, ptr } { i32 65535, ptr @_GLOBAL__sub_I_resolveInfo.cpp, ptr null }]
@llvm.compiler.used = appending global [1 x ptr] [ptr @_ZN32pxrInternal_v0_24__pxrReserved__L17_Tf_RegistryAdd15EPNS_6TfEnumE], section "llvm.metadata"

; Function Attrs: mustprogress uwtable
define internal void @_ZN32pxrInternal_v0_24__pxrReserved__L17_Tf_RegistryAdd15EPNS_6TfEnumE(ptr nocapture readnone %0) #0 section ".pxrctor" {
  tail call void @_ZN32pxrInternal_v0_24__pxrReserved__15Tf_RegistryInit3AddEPKcPFvPvS3_ES2_(ptr noundef nonnull @.str, ptr noundef nonnull @_ZN32pxrInternal_v0_24__pxrReserved__L22_Tf_RegistryFunction15EPNS_6TfEnumEPv, ptr noundef nonnull @.str.1)
  ret void
}

; Function Attrs: mustprogress uwtable
define internal void @_ZN32pxrInternal_v0_24__pxrReserved__L22_Tf_RegistryFunction15EPNS_6TfEnumEPv(ptr nocapture readnone %0, ptr nocapture readnone %1) #0 {
  tail call void @_ZN32pxrInternal_v0_24__pxrReserved__6TfEnum8_AddNameES0_PKcS2_(ptr nonnull @_ZTIN32pxrInternal_v0_24__pxrReserved__20UsdResolveInfoSourceE, i32 0, ptr noundef nonnull @.str.3, ptr noundef nonnull @.str.4)
  tail call void @_ZN32pxrInternal_v0_24__pxrReserved__6TfEnum8_AddNameES0_PKcS2_(ptr nonnull @_ZTIN32pxrInternal_v0_24__pxrReserved__20UsdResolveInfoSourceE, i32 1, ptr noundef nonnull @.str.5, ptr noundef nonnull @.str.6)
  tail call void @_ZN32pxrInternal_v0_24__pxrReserved__6TfEnum8_AddNameES0_PKcS2_(ptr nonnull @_ZTIN32pxrInternal_v0_24__pxrReserved__20UsdResolveInfoSourceE, i32 2, ptr noundef nonnull @.str.7, ptr noundef nonnull @.str.8)
  tail call void @_ZN32pxrInternal_v0_24__pxrReserved__6TfEnum8_AddNameES0_PKcS2_(ptr nonnull @_ZTIN32pxrInternal_v0_24__pxrReserved__20UsdResolveInfoSourceE, i32 3, ptr noundef nonnull @.str.9, ptr noundef nonnull @.str.10)
  tail call void @_ZN32pxrInternal_v0_24__pxrReserved__6TfEnum8_AddNameES0_PKcS2_(ptr nonnull @_ZTIN32pxrInternal_v0_24__pxrReserved__20UsdResolveInfoSourceE, i32 4, ptr noundef nonnull @.str.11, ptr noundef nonnull @.str.12)
  ret void
}

; Function Attrs: uwtable
define internal void @__cxx_global_var_init.2() #1 section ".text.startup" {
  tail call void @_ZN32pxrInternal_v0_24__pxrReserved__19Tf_RegistryInitCtorEPKc(ptr noundef nonnull @.str)
  %1 = tail call i32 @__cxa_atexit(ptr nonnull @_ZN32pxrInternal_v0_24__pxrReserved__12_GLOBAL__N_121Tf_RegistryStaticInitD2Ev, ptr nonnull @_ZN32pxrInternal_v0_24__pxrReserved__15Arch_PerLibInitINS_12_GLOBAL__N_121Tf_RegistryStaticInitEE4initE, ptr nonnull @__dso_handle) #8
  ret void
}

; Function Attrs: mustprogress nounwind uwtable
define internal void @_ZN32pxrInternal_v0_24__pxrReserved__12_GLOBAL__N_121Tf_RegistryStaticInitD2Ev(ptr nocapture nonnull readnone align 1 %0) unnamed_addr #2 align 2 personality ptr @__gxx_personality_v0 {
  invoke void @_ZN32pxrInternal_v0_24__pxrReserved__19Tf_RegistryInitDtorEPKc(ptr noundef nonnull @.str)
          to label %2 unwind label %3

2:                                                ; preds = %1
  ret void

3:                                                ; preds = %1
  %4 = landingpad { ptr, i32 }
          catch ptr null
  %5 = extractvalue { ptr, i32 } %4, 0
  tail call void @__clang_call_terminate(ptr %5) #9
  unreachable
}

; Function Attrs: nofree nounwind
declare i32 @__cxa_atexit(ptr, ptr, ptr) local_unnamed_addr #3

declare void @_ZN32pxrInternal_v0_24__pxrReserved__6TfEnum8_AddNameES0_PKcS2_(ptr, i32, ptr noundef, ptr noundef) local_unnamed_addr #4

declare void @_ZN32pxrInternal_v0_24__pxrReserved__15Tf_RegistryInit3AddEPKcPFvPvS3_ES2_(ptr noundef, ptr noundef, ptr noundef) local_unnamed_addr #4

declare void @_ZN32pxrInternal_v0_24__pxrReserved__19Tf_RegistryInitCtorEPKc(ptr noundef) local_unnamed_addr #4

declare void @_ZN32pxrInternal_v0_24__pxrReserved__19Tf_RegistryInitDtorEPKc(ptr noundef) local_unnamed_addr #4

declare i32 @__gxx_personality_v0(...)

; Function Attrs: noreturn nounwind uwtable
define linkonce_odr hidden void @__clang_call_terminate(ptr noundef %0) local_unnamed_addr #5 comdat {
  %2 = tail call ptr @__cxa_begin_catch(ptr %0) #8
  tail call void @_ZSt9terminatev() #9
  unreachable
}

declare ptr @__cxa_begin_catch(ptr) local_unnamed_addr

; Function Attrs: cold nofree noreturn
declare void @_ZSt9terminatev() local_unnamed_addr #6

; Function Attrs: mustprogress nofree norecurse nosync nounwind willreturn memory(none) uwtable
define internal void @_GLOBAL__sub_I_resolveInfo.cpp() #7 section ".text.startup" {
  ret void
}


!llvm.module.flags = !{!0, !1, !2, !3}

!0 = !{i32 1, !"wchar_size", i32 4}
!1 = !{i32 8, !"PIC Level", i32 2}
!2 = !{i32 7, !"uwtable", i32 2}
!3 = !{i32 7, !"frame-pointer", i32 2}
